target datalayout = "e-m:e-p270:32:32-p271:32:32-p272:64:64-i64:64-i128:128-f80:128-n8:16:32:64-S128"
target triple = "x86_64-pc-linux-gnu"

%struct.WebPPicture = type { i32, i32, i32, i32, ptr, ptr, ptr, i32, i32, ptr, i32, [2 x i32], ptr, i32, [3 x i32], ptr, ptr, i32, ptr, ptr, i32, ptr, ptr, [3 x i32], ptr, ptr, [8 x i32], ptr, ptr, [2 x ptr] }

; Function Attrs: inlinehint nounwind uwtable
define internal i32 @VP8LHashPix(i32 noundef %0, i32 noundef %1) #5 {
  %3 = alloca i32, align 4
  %4 = alloca i32, align 4
  store i32 %0, ptr %3, align 4, !tbaa !8
  store i32 %1, ptr %4, align 4, !tbaa !8
  %5 = load i32, ptr %3, align 4, !tbaa !8
  %6 = mul i32 %5, 506832829
  %7 = load i32, ptr %4, align 4, !tbaa !8
  %8 = lshr i32 %6, %7
  ret i32 %8
}

; Function Attrs: nounwind uwtable
define hidden i32 @GetColorPalette(ptr noundef %0, ptr noundef %1) #0 {
  %3 = alloca i32, align 4
  %4 = alloca ptr, align 8
  %5 = alloca ptr, align 8
  %6 = alloca i32, align 4
  %7 = alloca i32, align 4
  %8 = alloca i32, align 4
  %9 = alloca i32, align 4
  %10 = alloca [1024 x i8], align 16
  %11 = alloca [1024 x i32], align 16
  %12 = alloca ptr, align 8
  %13 = alloca i32, align 4
  %14 = alloca i32, align 4
  %15 = alloca i32, align 4
  %16 = alloca i32, align 4
  %17 = alloca i32, align 4
  store ptr %0, ptr %4, align 8, !tbaa !13
  store ptr %1, ptr %5, align 8, !tbaa !3
  call void @llvm.lifetime.start.p0(i64 4, ptr %6) #6
  call void @llvm.lifetime.start.p0(i64 4, ptr %7) #6
  call void @llvm.lifetime.start.p0(i64 4, ptr %8) #6
  call void @llvm.lifetime.start.p0(i64 4, ptr %9) #6
  store i32 0, ptr %9, align 4, !tbaa !8
  call void @llvm.lifetime.start.p0(i64 1024, ptr %10) #6
  call void @llvm.memset.p0.i64(ptr align 16 %10, i8 0, i64 1024, i1 false)
  call void @llvm.lifetime.start.p0(i64 4096, ptr %11) #6
  call void @llvm.memset.p0.i64(ptr align 16 %11, i8 0, i64 4096, i1 false)
  call void @llvm.lifetime.start.p0(i64 8, ptr %12) #6
  %18 = load ptr, ptr %4, align 8, !tbaa !13
  %19 = getelementptr inbounds nuw %struct.WebPPicture, ptr %18, i32 0, i32 12
  %20 = load ptr, ptr %19, align 8, !tbaa !15
  store ptr %20, ptr %12, align 8, !tbaa !3
  call void @llvm.lifetime.start.p0(i64 4, ptr %13) #6
  %21 = load ptr, ptr %4, align 8, !tbaa !13
  %22 = getelementptr inbounds nuw %struct.WebPPicture, ptr %21, i32 0, i32 2
  %23 = load i32, ptr %22, align 8, !tbaa !19
  store i32 %23, ptr %13, align 4, !tbaa !8
  call void @llvm.lifetime.start.p0(i64 4, ptr %14) #6
  %24 = load ptr, ptr %4, align 8, !tbaa !13
  %25 = getelementptr inbounds nuw %struct.WebPPicture, ptr %24, i32 0, i32 3
  %26 = load i32, ptr %25, align 4, !tbaa !20
  store i32 %26, ptr %14, align 4, !tbaa !8
  call void @llvm.lifetime.start.p0(i64 4, ptr %15) #6
  %27 = load ptr, ptr %12, align 8, !tbaa !3
  %28 = getelementptr inbounds i32, ptr %27, i64 0
  %29 = load i32, ptr %28, align 4, !tbaa !8
  %30 = xor i32 %29, -1
  store i32 %30, ptr %15, align 4, !tbaa !8
  store i32 0, ptr %8, align 4, !tbaa !8
  br label %31

31:                                               ; preds = %107, %2
  %32 = load i32, ptr %8, align 4, !tbaa !8
  %33 = load i32, ptr %14, align 4, !tbaa !8
  %34 = icmp slt i32 %32, %33
  br i1 %34, label %35, label %110

35:                                               ; preds = %31
  store i32 0, ptr %7, align 4, !tbaa !8
  br label %36

36:                                               ; preds = %97, %35
  %37 = load i32, ptr %7, align 4, !tbaa !8
  %38 = load i32, ptr %13, align 4, !tbaa !8
  %39 = icmp slt i32 %37, %38
  br i1 %39, label %40, label %100

40:                                               ; preds = %36
  call void @llvm.lifetime.start.p0(i64 4, ptr %16) #6
  %41 = load ptr, ptr %12, align 8, !tbaa !3
  %42 = load i32, ptr %7, align 4, !tbaa !8
  %43 = sext i32 %42 to i64
  %44 = getelementptr inbounds i32, ptr %41, i64 %43
  %45 = load i32, ptr %44, align 4, !tbaa !8
  %46 = load i32, ptr %15, align 4, !tbaa !8
  %47 = icmp eq i32 %45, %46
  br i1 %47, label %48, label %49

48:                                               ; preds = %40
  store i32 7, ptr %17, align 4
  br label %94

49:                                               ; preds = %40
  %50 = load ptr, ptr %12, align 8, !tbaa !3
  %51 = load i32, ptr %7, align 4, !tbaa !8
  %52 = sext i32 %51 to i64
  %53 = getelementptr inbounds i32, ptr %50, i64 %52
  %54 = load i32, ptr %53, align 4, !tbaa !8
  store i32 %54, ptr %15, align 4, !tbaa !8
  %55 = load i32, ptr %15, align 4, !tbaa !8
  %56 = call i32 @VP8LHashPix(i32 noundef %55, i32 noundef 22)
  store i32 %56, ptr %16, align 4, !tbaa !8
  br label %57

57:                                               ; preds = %92, %49
  br label %58

58:                                               ; preds = %57
  %59 = load i32, ptr %16, align 4, !tbaa !8
  %60 = sext i32 %59 to i64
  %61 = getelementptr inbounds [1024 x i8], ptr %10, i64 0, i64 %60
  %62 = load i8, ptr %61, align 1, !tbaa !21
  %63 = icmp ne i8 %62, 0
  br i1 %63, label %78, label %64

64:                                               ; preds = %58
  %65 = load i32, ptr %15, align 4, !tbaa !8
  %66 = load i32, ptr %16, align 4, !tbaa !8
  %67 = sext i32 %66 to i64
  %68 = getelementptr inbounds [1024 x i32], ptr %11, i64 0, i64 %67
  store i32 %65, ptr %68, align 4, !tbaa !8
  %69 = load i32, ptr %16, align 4, !tbaa !8
  %70 = sext i32 %69 to i64
  %71 = getelementptr inbounds [1024 x i8], ptr %10, i64 0, i64 %70
  store i8 1, ptr %71, align 1, !tbaa !21
  %72 = load i32, ptr %9, align 4, !tbaa !8
  %73 = add nsw i32 %72, 1
  store i32 %73, ptr %9, align 4, !tbaa !8
  %74 = load i32, ptr %9, align 4, !tbaa !8
  %75 = icmp sgt i32 %74, 256
  br i1 %75, label %76, label %77

76:                                               ; preds = %64
  store i32 257, ptr %3, align 4
  store i32 1, ptr %17, align 4
  br label %94

77:                                               ; preds = %64
  br label %93

78:                                               ; preds = %58
  %79 = load i32, ptr %16, align 4, !tbaa !8
  %80 = sext i32 %79 to i64
  %81 = getelementptr inbounds [1024 x i32], ptr %11, i64 0, i64 %80
  %82 = load i32, ptr %81, align 4, !tbaa !8
  %83 = load i32, ptr %15, align 4, !tbaa !8
  %84 = icmp eq i32 %82, %83
  br i1 %84, label %85, label %86

85:                                               ; preds = %78
  br label %93

86:                                               ; preds = %78
  %87 = load i32, ptr %16, align 4, !tbaa !8
  %88 = add nsw i32 %87, 1
  store i32 %88, ptr %16, align 4, !tbaa !8
  %89 = load i32, ptr %16, align 4, !tbaa !8
  %90 = and i32 %89, 1023
  store i32 %90, ptr %16, align 4, !tbaa !8
  br label %91

91:                                               ; preds = %86
  br label %92

92:                                               ; preds = %91
  br label %57

93:                                               ; preds = %85, %77
  store i32 0, ptr %17, align 4
  br label %94

94:                                               ; preds = %93, %76, %48
  call void @llvm.lifetime.end.p0(i64 4, ptr %16) #6
  %95 = load i32, ptr %17, align 4
  switch i32 %95, label %144 [
    i32 0, label %96
    i32 7, label %97
  ]

96:                                               ; preds = %94
  br label %97

97:                                               ; preds = %96, %94
  %98 = load i32, ptr %7, align 4, !tbaa !8
  %99 = add nsw i32 %98, 1
  store i32 %99, ptr %7, align 4, !tbaa !8
  br label %36, !llvm.loop !22

100:                                              ; preds = %36
  %101 = load ptr, ptr %4, align 8, !tbaa !13
  %102 = getelementptr inbounds nuw %struct.WebPPicture, ptr %101, i32 0, i32 13
  %103 = load i32, ptr %102, align 8, !tbaa !23
  %104 = load ptr, ptr %12, align 8, !tbaa !3
  %105 = sext i32 %103 to i64
  %106 = getelementptr inbounds i32, ptr %104, i64 %105
  store ptr %106, ptr %12, align 8, !tbaa !3
  br label %107

107:                                              ; preds = %100
  %108 = load i32, ptr %8, align 4, !tbaa !8
  %109 = add nsw i32 %108, 1
  store i32 %109, ptr %8, align 4, !tbaa !8
  br label %31, !llvm.loop !24

110:                                              ; preds = %31
  %111 = load ptr, ptr %5, align 8, !tbaa !3
  %112 = icmp ne ptr %111, null
  br i1 %112, label %113, label %142

113:                                              ; preds = %110
  store i32 0, ptr %9, align 4, !tbaa !8
  store i32 0, ptr %6, align 4, !tbaa !8
  br label %114

114:                                              ; preds = %135, %113
  %115 = load i32, ptr %6, align 4, !tbaa !8
  %116 = icmp slt i32 %115, 1024
  br i1 %116, label %117, label %138

117:                                              ; preds = %114
  %118 = load i32, ptr %6, align 4, !tbaa !8
  %119 = sext i32 %118 to i64
  %120 = getelementptr inbounds [1024 x i8], ptr %10, i64 0, i64 %119
  %121 = load i8, ptr %120, align 1, !tbaa !21
  %122 = icmp ne i8 %121, 0
  br i1 %122, label %123, label %134

123:                                              ; preds = %117
  %124 = load i32, ptr %6, align 4, !tbaa !8
  %125 = sext i32 %124 to i64
  %126 = getelementptr inbounds [1024 x i32], ptr %11, i64 0, i64 %125
  %127 = load i32, ptr %126, align 4, !tbaa !8
  %128 = load ptr, ptr %5, align 8, !tbaa !3
  %129 = load i32, ptr %9, align 4, !tbaa !8
  %130 = sext i32 %129 to i64
  %131 = getelementptr inbounds i32, ptr %128, i64 %130
  store i32 %127, ptr %131, align 4, !tbaa !8
  %132 = load i32, ptr %9, align 4, !tbaa !8
  %133 = add nsw i32 %132, 1
  store i32 %133, ptr %9, align 4, !tbaa !8
  br label %134

134:                                              ; preds = %123, %117
  br label %135

135:                                              ; preds = %134
  %136 = load i32, ptr %6, align 4, !tbaa !8
  %137 = add nsw i32 %136, 1
  store i32 %137, ptr %6, align 4, !tbaa !8
  br label %114, !llvm.loop !25

138:                                              ; preds = %114
  %139 = load ptr, ptr %5, align 8, !tbaa !3
  %140 = load i32, ptr %9, align 4, !tbaa !8
  %141 = sext i32 %140 to i64
  call void @qsort(ptr noundef %139, i64 noundef %141, i64 noundef 4, ptr noundef @PaletteCompareColorsForQsort)
  br label %142

142:                                              ; preds = %138, %110
  %143 = load i32, ptr %9, align 4, !tbaa !8
  store i32 %143, ptr %3, align 4
  store i32 1, ptr %17, align 4
  br label %144

144:                                              ; preds = %142, %94
  call void @llvm.lifetime.end.p0(i64 4, ptr %15) #6
  call void @llvm.lifetime.end.p0(i64 4, ptr %14) #6
  call void @llvm.lifetime.end.p0(i64 4, ptr %13) #6
  call void @llvm.lifetime.end.p0(i64 8, ptr %12) #6
  call void @llvm.lifetime.end.p0(i64 4096, ptr %11) #6
  call void @llvm.lifetime.end.p0(i64 1024, ptr %10) #6
  call void @llvm.lifetime.end.p0(i64 4, ptr %9) #6
  call void @llvm.lifetime.end.p0(i64 4, ptr %8) #6
  call void @llvm.lifetime.end.p0(i64 4, ptr %7) #6
  call void @llvm.lifetime.end.p0(i64 4, ptr %6) #6
  %145 = load i32, ptr %3, align 4
  ret i32 %145
}