; Function Attrs: nofree nounwind uwtable
define hidden i32 @GetColorPalette(ptr noundef readonly captures(none) %0, ptr noundef %1) local_unnamed_addr #2 {
  %3 = alloca [1024 x i8], align 16
  %4 = alloca [1024 x i32], align 16
  call void @llvm.lifetime.start.p0(i64 1024, ptr nonnull %3) #10
  call void @llvm.memset.p0.i64(ptr noundef nonnull align 16 dereferenceable(1024) %3, i8 0, i64 1024, i1 false)
  call void @llvm.lifetime.start.p0(i64 4096, ptr nonnull %4) #10
  call void @llvm.memset.p0.i64(ptr noundef nonnull align 16 dereferenceable(4096) %4, i8 0, i64 4096, i1 false)
  %5 = getelementptr inbounds nuw i8, ptr %0, i64 8
  %6 = load i32, ptr %5, align 8, !tbaa !9
  %7 = getelementptr inbounds nuw i8, ptr %0, i64 12
  %8 = load i32, ptr %7, align 4, !tbaa !15
  %9 = icmp sgt i32 %8, 0
  br i1 %9, label %.preheader64.lr.ph, label %._crit_edge87

.preheader64.lr.ph:                               ; preds = %2
  %10 = icmp sgt i32 %6, 0
  %11 = getelementptr inbounds nuw i8, ptr %0, i64 80
  br i1 %10, label %.preheader64.us.preheader, label %._crit_edge87

.preheader64.us.preheader:                        ; preds = %.preheader64.lr.ph
  %12 = getelementptr inbounds nuw i8, ptr %0, i64 72
  %13 = load ptr, ptr %12, align 8, !tbaa !16
  %14 = load i32, ptr %13, align 4, !tbaa !3
  %15 = xor i32 %14, -1
  %wide.trip.count = zext nneg i32 %6 to i64
  br label %.preheader64.us

.preheader64.us:                                  ; preds = %.preheader64.us.preheader, %._crit_edge80.us
  %.04186.us = phi i32 [ %.2.ph.us, %._crit_edge80.us ], [ %15, %.preheader64.us.preheader ]
  %.04685.us = phi ptr [ %42, %._crit_edge80.us ], [ %13, %.preheader64.us.preheader ]
  %.04784.us = phi i32 [ %.249.ph.us, %._crit_edge80.us ], [ 0, %.preheader64.us.preheader ]
  %.05183.us = phi i32 [ %43, %._crit_edge80.us ], [ 0, %.preheader64.us.preheader ]
  br label %16

16:                                               ; preds = %.preheader64.us, %.loopexit.us
  %indvars.iv = phi i64 [ 0, %.preheader64.us ], [ %indvars.iv.next, %.loopexit.us ]
  %.178.us = phi i32 [ %.04186.us, %.preheader64.us ], [ %.2.ph.us, %.loopexit.us ]
  %.14877.us = phi i32 [ %.04784.us, %.preheader64.us ], [ %.249.ph.us, %.loopexit.us ]
  %17 = getelementptr inbounds nuw i32, ptr %.04685.us, i64 %indvars.iv
  %18 = load i32, ptr %17, align 4, !tbaa !3
  %19 = icmp eq i32 %18, %.178.us
  br i1 %19, label %.loopexit.us, label %20

20:                                               ; preds = %16
  %21 = mul i32 %18, 506832829
  %22 = lshr i32 %21, 22
  %23 = zext nneg i32 %22 to i64
  %24 = getelementptr inbounds nuw [1024 x i8], ptr %3, i64 0, i64 %23
  %25 = load i8, ptr %24, align 1, !tbaa !17
  %.not5873.us = icmp eq i8 %25, 0
  br i1 %.not5873.us, label %._crit_edge.us, label %.lr.ph.us

.lr.ph.us:                                        ; preds = %20, %30
  %26 = phi i64 [ %33, %30 ], [ %23, %20 ]
  %.04074.us = phi i32 [ %32, %30 ], [ %22, %20 ]
  %27 = getelementptr inbounds nuw [1024 x i32], ptr %4, i64 0, i64 %26
  %28 = load i32, ptr %27, align 4, !tbaa !3
  %29 = icmp eq i32 %28, %18
  br i1 %29, label %.loopexit.us, label %30

30:                                               ; preds = %.lr.ph.us
  %31 = add nuw nsw i32 %.04074.us, 1
  %32 = and i32 %31, 1023
  %33 = zext nneg i32 %32 to i64
  %34 = getelementptr inbounds nuw [1024 x i8], ptr %3, i64 0, i64 %33
  %35 = load i8, ptr %34, align 1, !tbaa !17
  %.not58.us = icmp eq i8 %35, 0
  br i1 %.not58.us, label %._crit_edge.us, label %.lr.ph.us

._crit_edge.us:                                   ; preds = %30, %20
  %.lcssa72.us = phi i64 [ %23, %20 ], [ %33, %30 ]
  %36 = getelementptr inbounds nuw [1024 x i8], ptr %3, i64 0, i64 %.lcssa72.us
  %37 = getelementptr inbounds nuw [1024 x i32], ptr %4, i64 0, i64 %.lcssa72.us
  store i32 %18, ptr %37, align 4, !tbaa !3
  store i8 1, ptr %36, align 1, !tbaa !17
  %38 = add nsw i32 %.14877.us, 1
  %39 = icmp sgt i32 %.14877.us, 255
  br i1 %39, label %.loopexit65, label %.loopexit.us

.loopexit.us:                                     ; preds = %.lr.ph.us, %._crit_edge.us, %16
  %.249.ph.us = phi i32 [ %38, %._crit_edge.us ], [ %.14877.us, %16 ], [ %.14877.us, %.lr.ph.us ]
  %.2.ph.us = phi i32 [ %18, %._crit_edge.us ], [ %.178.us, %16 ], [ %18, %.lr.ph.us ]
  %indvars.iv.next = add nuw nsw i64 %indvars.iv, 1
  %exitcond.not = icmp eq i64 %indvars.iv.next, %wide.trip.count
  br i1 %exitcond.not, label %._crit_edge80.us, label %16, !llvm.loop !18

._crit_edge80.us:                                 ; preds = %.loopexit.us
  %40 = load i32, ptr %11, align 8, !tbaa !19
  %41 = sext i32 %40 to i64
  %42 = getelementptr inbounds i32, ptr %.04685.us, i64 %41
  %43 = add nuw nsw i32 %.05183.us, 1
  %exitcond93.not = icmp eq i32 %43, %8
  br i1 %exitcond93.not, label %._crit_edge87, label %.preheader64.us, !llvm.loop !20

._crit_edge87:                                    ; preds = %._crit_edge80.us, %.preheader64.lr.ph, %2
  %.047.lcssa = phi i32 [ 0, %2 ], [ 0, %.preheader64.lr.ph ], [ %.249.ph.us, %._crit_edge80.us ]
  %.not = icmp eq ptr %1, null
  br i1 %.not, label %.loopexit65, label %.preheader

.preheader:                                       ; preds = %._crit_edge87, %52
  %indvars.iv94 = phi i64 [ %indvars.iv.next95, %52 ], [ 0, %._crit_edge87 ]
  %.589 = phi i32 [ %.6, %52 ], [ 0, %._crit_edge87 ]
  %44 = getelementptr inbounds nuw [1024 x i8], ptr %3, i64 0, i64 %indvars.iv94
  %45 = load i8, ptr %44, align 1, !tbaa !17
  %.not57 = icmp eq i8 %45, 0
  br i1 %.not57, label %52, label %46

46:                                               ; preds = %.preheader
  %47 = getelementptr inbounds nuw [1024 x i32], ptr %4, i64 0, i64 %indvars.iv94
  %48 = load i32, ptr %47, align 4, !tbaa !3
  %49 = sext i32 %.589 to i64
  %50 = getelementptr inbounds i32, ptr %1, i64 %49
  store i32 %48, ptr %50, align 4, !tbaa !3
  %51 = add nsw i32 %.589, 1
  br label %52

52:                                               ; preds = %.preheader, %46
  %.6 = phi i32 [ %51, %46 ], [ %.589, %.preheader ]
  %indvars.iv.next95 = add nuw nsw i64 %indvars.iv94, 1
  %exitcond97.not = icmp eq i64 %indvars.iv.next95, 1024
  br i1 %exitcond97.not, label %53, label %.preheader, !llvm.loop !21

53:                                               ; preds = %52
  %54 = sext i32 %.6 to i64
  tail call void @qsort(ptr noundef nonnull %1, i64 noundef %54, i64 noundef 4, ptr noundef nonnull @PaletteCompareColorsForQsort) #10
  br label %.loopexit65

.loopexit65:                                      ; preds = %._crit_edge.us, %._crit_edge87, %53
  %.3 = phi i32 [ %.6, %53 ], [ %.047.lcssa, %._crit_edge87 ], [ 257, %._crit_edge.us ]
  call void @llvm.lifetime.end.p0(i64 4096, ptr nonnull %4) #10
  call void @llvm.lifetime.end.p0(i64 1024, ptr nonnull %3) #10
  ret i32 %.3
}